target datalayout = "e-m:e-p270:32:32-p271:32:32-p272:64:64-i64:64-i128:128-f80:128-n8:16:32:64-S128"
target triple = "x86_64-unknown-linux-gnu"

%struct.listNode = type { ptr, ptr, ptr }
%struct.rewriteConfigState = type { ptr, ptr, i32, ptr, i32, i32 }
%struct.list = type { ptr, ptr, ptr, ptr, ptr, i64 }

@.str.96 = private unnamed_addr constant [30 x i8] c"# Generated by CONFIG REWRITE\00", align 1

; Function Attrs: nounwind uwtable
define dso_local void @rewriteConfigAppendLine(ptr noundef %state, ptr noundef %line) #0 {
entry:
  %state.addr = alloca ptr, align 8
  %line.addr = alloca ptr, align 8
  store ptr %state, ptr %state.addr, align 8
  store ptr %line, ptr %line.addr, align 8
  %0 = load ptr, ptr %state.addr, align 8
  %lines = getelementptr inbounds %struct.rewriteConfigState, ptr %0, i32 0, i32 3
  %1 = load ptr, ptr %lines, align 8
  %2 = load ptr, ptr %state.addr, align 8
  %numlines = getelementptr inbounds %struct.rewriteConfigState, ptr %2, i32 0, i32 2
  %3 = load i32, ptr %numlines, align 8
  %add = add nsw i32 %3, 1
  %conv = sext i32 %add to i64
  %mul = mul i64 8, %conv
  %call = call ptr @zrealloc(ptr noundef %1, i64 noundef %mul) #12
  %4 = load ptr, ptr %state.addr, align 8
  %lines1 = getelementptr inbounds %struct.rewriteConfigState, ptr %4, i32 0, i32 3
  store ptr %call, ptr %lines1, align 8
  %5 = load ptr, ptr %line.addr, align 8
  %6 = load ptr, ptr %state.addr, align 8
  %lines2 = getelementptr inbounds %struct.rewriteConfigState, ptr %6, i32 0, i32 3
  %7 = load ptr, ptr %lines2, align 8
  %8 = load ptr, ptr %state.addr, align 8
  %numlines3 = getelementptr inbounds %struct.rewriteConfigState, ptr %8, i32 0, i32 2
  %9 = load i32, ptr %numlines3, align 8
  %inc = add nsw i32 %9, 1
  store i32 %inc, ptr %numlines3, align 8
  %idxprom = sext i32 %9 to i64
  %arrayidx = getelementptr inbounds ptr, ptr %7, i64 %idxprom
  store ptr %5, ptr %arrayidx, align 8
  ret void
}

; Function Attrs: nounwind uwtable
define dso_local void @rewriteConfigMarkAsProcessed(ptr noundef %state, ptr noundef %option) #0 {
entry:
  %state.addr = alloca ptr, align 8
  %option.addr = alloca ptr, align 8
  %opt = alloca ptr, align 8
  store ptr %state, ptr %state.addr, align 8
  store ptr %option, ptr %option.addr, align 8
  %0 = load ptr, ptr %option.addr, align 8
  %call = call ptr @sdsnew(ptr noundef %0)
  store ptr %call, ptr %opt, align 8
  %1 = load ptr, ptr %state.addr, align 8
  %rewritten = getelementptr inbounds %struct.rewriteConfigState, ptr %1, i32 0, i32 1
  %2 = load ptr, ptr %rewritten, align 8
  %3 = load ptr, ptr %opt, align 8
  %call1 = call i32 @dictAdd(ptr noundef %2, ptr noundef %3, ptr noundef null)
  %cmp = icmp ne i32 %call1, 0
  br i1 %cmp, label %if.then, label %if.end

if.then:                                          ; preds = %entry
  %4 = load ptr, ptr %opt, align 8
  call void @sdsfree(ptr noundef %4)
  br label %if.end

if.end:                                           ; preds = %if.then, %entry
  ret void
}

; Function Attrs: nounwind uwtable
define dso_local i32 @rewriteConfigRewriteLine(ptr noundef %state, ptr noundef %option, ptr noundef %line, i32 noundef %force) #0 {
entry:
  %retval = alloca i32, align 4
  %state.addr = alloca ptr, align 8
  %option.addr = alloca ptr, align 8
  %line.addr = alloca ptr, align 8
  %force.addr = alloca i32, align 4
  %o = alloca ptr, align 8
  %l = alloca ptr, align 8
  %ln = alloca ptr, align 8
  %linenum = alloca i32, align 4
  store ptr %state, ptr %state.addr, align 8
  store ptr %option, ptr %option.addr, align 8
  store ptr %line, ptr %line.addr, align 8
  store i32 %force, ptr %force.addr, align 4
  %0 = load ptr, ptr %option.addr, align 8
  %call = call ptr @sdsnew(ptr noundef %0)
  store ptr %call, ptr %o, align 8
  %1 = load ptr, ptr %state.addr, align 8
  %option_to_line = getelementptr inbounds %struct.rewriteConfigState, ptr %1, i32 0, i32 0
  %2 = load ptr, ptr %option_to_line, align 8
  %3 = load ptr, ptr %o, align 8
  %call1 = call ptr @dictFetchValue(ptr noundef %2, ptr noundef %3)
  store ptr %call1, ptr %l, align 8
  %4 = load ptr, ptr %state.addr, align 8
  %5 = load ptr, ptr %option.addr, align 8
  call void @rewriteConfigMarkAsProcessed(ptr noundef %4, ptr noundef %5)
  %6 = load ptr, ptr %l, align 8
  %tobool = icmp ne ptr %6, null
  br i1 %tobool, label %if.end, label %land.lhs.true

land.lhs.true:                                    ; preds = %entry
  %7 = load i32, ptr %force.addr, align 4
  %tobool2 = icmp ne i32 %7, 0
  br i1 %tobool2, label %if.end, label %land.lhs.true3

land.lhs.true3:                                   ; preds = %land.lhs.true
  %8 = load ptr, ptr %state.addr, align 8
  %force_write = getelementptr inbounds %struct.rewriteConfigState, ptr %8, i32 0, i32 5
  %9 = load i32, ptr %force_write, align 4
  %tobool4 = icmp ne i32 %9, 0
  br i1 %tobool4, label %if.end, label %if.then

if.then:                                          ; preds = %land.lhs.true3
  %10 = load ptr, ptr %line.addr, align 8
  call void @sdsfree(ptr noundef %10)
  %11 = load ptr, ptr %o, align 8
  call void @sdsfree(ptr noundef %11)
  store i32 0, ptr %retval, align 4
  br label %return

if.end:                                           ; preds = %land.lhs.true3, %land.lhs.true, %entry
  %12 = load ptr, ptr %l, align 8
  %tobool5 = icmp ne ptr %12, null
  br i1 %tobool5, label %if.then6, label %if.else

if.then6:                                         ; preds = %if.end
  %13 = load ptr, ptr %l, align 8
  %head = getelementptr inbounds %struct.list, ptr %13, i32 0, i32 0
  %14 = load ptr, ptr %head, align 8
  store ptr %14, ptr %ln, align 8
  %15 = load ptr, ptr %ln, align 8
  %value = getelementptr inbounds %struct.listNode, ptr %15, i32 0, i32 2
  %16 = load ptr, ptr %value, align 8
  %17 = ptrtoint ptr %16 to i64
  %conv = trunc i64 %17 to i32
  store i32 %conv, ptr %linenum, align 4
  %18 = load ptr, ptr %l, align 8
  %19 = load ptr, ptr %ln, align 8
  call void @listDelNode(ptr noundef %18, ptr noundef %19)
  %20 = load ptr, ptr %l, align 8
  %len = getelementptr inbounds %struct.list, ptr %20, i32 0, i32 5
  %21 = load i64, ptr %len, align 8
  %cmp = icmp eq i64 %21, 0
  br i1 %cmp, label %if.then8, label %if.end11

if.then8:                                         ; preds = %if.then6
  %22 = load ptr, ptr %state.addr, align 8
  %option_to_line9 = getelementptr inbounds %struct.rewriteConfigState, ptr %22, i32 0, i32 0
  %23 = load ptr, ptr %option_to_line9, align 8
  %24 = load ptr, ptr %o, align 8
  %call10 = call i32 @dictDelete(ptr noundef %23, ptr noundef %24)
  br label %if.end11

if.end11:                                         ; preds = %if.then8, %if.then6
  %25 = load ptr, ptr %state.addr, align 8
  %lines = getelementptr inbounds %struct.rewriteConfigState, ptr %25, i32 0, i32 3
  %26 = load ptr, ptr %lines, align 8
  %27 = load i32, ptr %linenum, align 4
  %idxprom = sext i32 %27 to i64
  %arrayidx = getelementptr inbounds ptr, ptr %26, i64 %idxprom
  %28 = load ptr, ptr %arrayidx, align 8
  call void @sdsfree(ptr noundef %28)
  %29 = load ptr, ptr %line.addr, align 8
  %30 = load ptr, ptr %state.addr, align 8
  %lines12 = getelementptr inbounds %struct.rewriteConfigState, ptr %30, i32 0, i32 3
  %31 = load ptr, ptr %lines12, align 8
  %32 = load i32, ptr %linenum, align 4
  %idxprom13 = sext i32 %32 to i64
  %arrayidx14 = getelementptr inbounds ptr, ptr %31, i64 %idxprom13
  store ptr %29, ptr %arrayidx14, align 8
  br label %if.end20

if.else:                                          ; preds = %if.end
  %33 = load ptr, ptr %state.addr, align 8
  %needs_signature = getelementptr inbounds %struct.rewriteConfigState, ptr %33, i32 0, i32 4
  %34 = load i32, ptr %needs_signature, align 8
  %tobool15 = icmp ne i32 %34, 0
  br i1 %tobool15, label %if.then16, label %if.end19

if.then16:                                        ; preds = %if.else
  %35 = load ptr, ptr %state.addr, align 8
  %call17 = call ptr @sdsnew(ptr noundef @.str.96)
  call void @rewriteConfigAppendLine(ptr noundef %35, ptr noundef %call17)
  %36 = load ptr, ptr %state.addr, align 8
  %needs_signature18 = getelementptr inbounds %struct.rewriteConfigState, ptr %36, i32 0, i32 4
  store i32 0, ptr %needs_signature18, align 8
  br label %if.end19

if.end19:                                         ; preds = %if.then16, %if.else
  %37 = load ptr, ptr %state.addr, align 8
  %38 = load ptr, ptr %line.addr, align 8
  call void @rewriteConfigAppendLine(ptr noundef %37, ptr noundef %38)
  br label %if.end20

if.end20:                                         ; preds = %if.end19, %if.end11
  %39 = load ptr, ptr %o, align 8
  call void @sdsfree(ptr noundef %39)
  store i32 1, ptr %retval, align 4
  br label %return

return:                                           ; preds = %if.end20, %if.then
  %40 = load i32, ptr %retval, align 4
  ret i32 %40
}