; Function Attrs: nounwind uwtable
define dso_local noundef i32 @rewriteConfigRewriteLine(ptr nocapture noundef %state, ptr noundef %option, ptr noundef %line, i32 noundef %force) local_unnamed_addr #2 {
entry:
  %call = tail call ptr @sdsnew(ptr noundef %option) #24
  %0 = load ptr, ptr %state, align 8
  %call1 = tail call ptr @dictFetchValue(ptr noundef %0, ptr noundef %call) #24
  %call.i = tail call ptr @sdsnew(ptr noundef %option) #24
  %rewritten.i = getelementptr inbounds i8, ptr %state, i64 8
  %1 = load ptr, ptr %rewritten.i, align 8
  %call1.i = tail call i32 @dictAdd(ptr noundef %1, ptr noundef %call.i, ptr noundef null) #24
  %cmp.not.i = icmp eq i32 %call1.i, 0
  br i1 %cmp.not.i, label %rewriteConfigMarkAsProcessed.exit, label %if.then.i

if.then.i:                                        ; preds = %entry
  tail call void @sdsfree(ptr noundef %call.i) #24
  br label %rewriteConfigMarkAsProcessed.exit

rewriteConfigMarkAsProcessed.exit:                ; preds = %entry, %if.then.i
  %tobool = icmp ne ptr %call1, null
  %tobool2 = icmp ne i32 %force, 0
  %or.cond = or i1 %tobool2, %tobool
  br i1 %or.cond, label %if.end, label %land.lhs.true3

land.lhs.true3:                                   ; preds = %rewriteConfigMarkAsProcessed.exit
  %force_write = getelementptr inbounds i8, ptr %state, i64 36
  %2 = load i32, ptr %force_write, align 4
  %tobool4.not = icmp eq i32 %2, 0
  br i1 %tobool4.not, label %if.then, label %if.else

if.then:                                          ; preds = %land.lhs.true3
  tail call void @sdsfree(ptr noundef %line) #24
  br label %return

if.end:                                           ; preds = %rewriteConfigMarkAsProcessed.exit
  br i1 %tobool, label %if.then6, label %if.else

if.then6:                                         ; preds = %if.end
  %3 = load ptr, ptr %call1, align 8
  %value = getelementptr inbounds i8, ptr %3, i64 16
  %4 = load ptr, ptr %value, align 8
  %5 = ptrtoint ptr %4 to i64
  tail call void @listDelNode(ptr noundef nonnull %call1, ptr noundef %3) #24
  %len = getelementptr inbounds i8, ptr %call1, i64 40
  %6 = load i64, ptr %len, align 8
  %cmp = icmp eq i64 %6, 0
  br i1 %cmp, label %if.then8, label %if.end11

if.then8:                                         ; preds = %if.then6
  %7 = load ptr, ptr %state, align 8
  %call10 = tail call i32 @dictDelete(ptr noundef %7, ptr noundef %call) #24
  br label %if.end11

if.end11:                                         ; preds = %if.then8, %if.then6
  %lines = getelementptr inbounds i8, ptr %state, i64 24
  %8 = load ptr, ptr %lines, align 8
  %sext = shl i64 %5, 32
  %idxprom = ashr exact i64 %sext, 32
  %arrayidx = getelementptr inbounds ptr, ptr %8, i64 %idxprom
  %9 = load ptr, ptr %arrayidx, align 8
  tail call void @sdsfree(ptr noundef %9) #24
  %10 = load ptr, ptr %lines, align 8
  %arrayidx14 = getelementptr inbounds ptr, ptr %10, i64 %idxprom
  br label %if.end20

if.else:                                          ; preds = %land.lhs.true3, %if.end
  %needs_signature = getelementptr inbounds i8, ptr %state, i64 32
  %11 = load i32, ptr %needs_signature, align 8
  %tobool15.not = icmp eq i32 %11, 0
  br i1 %tobool15.not, label %if.end19, label %if.then16

if.then16:                                        ; preds = %if.else
  %call17 = tail call ptr @sdsnew(ptr noundef nonnull @.str.96) #24
  %lines.i = getelementptr inbounds i8, ptr %state, i64 24
  %12 = load ptr, ptr %lines.i, align 8
  %numlines.i = getelementptr inbounds i8, ptr %state, i64 16
  %13 = load i32, ptr %numlines.i, align 8
  %add.i = add nsw i32 %13, 1
  %conv.i = sext i32 %add.i to i64
  %mul.i = shl nsw i64 %conv.i, 3
  %call.i22 = tail call ptr @zrealloc(ptr noundef %12, i64 noundef %mul.i) #26
  store ptr %call.i22, ptr %lines.i, align 8
  %14 = load i32, ptr %numlines.i, align 8
  %inc.i = add nsw i32 %14, 1
  store i32 %inc.i, ptr %numlines.i, align 8
  %idxprom.i = sext i32 %14 to i64
  %arrayidx.i = getelementptr inbounds ptr, ptr %call.i22, i64 %idxprom.i
  store ptr %call17, ptr %arrayidx.i, align 8
  store i32 0, ptr %needs_signature, align 8
  br label %if.end19

if.end19:                                         ; preds = %if.then16, %if.else
  %lines.i23 = getelementptr inbounds i8, ptr %state, i64 24
  %15 = load ptr, ptr %lines.i23, align 8
  %numlines.i24 = getelementptr inbounds i8, ptr %state, i64 16
  %16 = load i32, ptr %numlines.i24, align 8
  %add.i25 = add nsw i32 %16, 1
  %conv.i26 = sext i32 %add.i25 to i64
  %mul.i27 = shl nsw i64 %conv.i26, 3
  %call.i28 = tail call ptr @zrealloc(ptr noundef %15, i64 noundef %mul.i27) #26
  store ptr %call.i28, ptr %lines.i23, align 8
  %17 = load i32, ptr %numlines.i24, align 8
  %inc.i29 = add nsw i32 %17, 1
  store i32 %inc.i29, ptr %numlines.i24, align 8
  %idxprom.i30 = sext i32 %17 to i64
  %arrayidx.i31 = getelementptr inbounds ptr, ptr %call.i28, i64 %idxprom.i30
  br label %if.end20

if.end20:                                         ; preds = %if.end19, %if.end11
  %arrayidx.i31.sink = phi ptr [ %arrayidx.i31, %if.end19 ], [ %arrayidx14, %if.end11 ]
  store ptr %line, ptr %arrayidx.i31.sink, align 8
  br label %return

return:                                           ; preds = %if.end20, %if.then
  %retval.0 = phi i32 [ 1, %if.end20 ], [ 0, %if.then ]
  tail call void @sdsfree(ptr noundef %call) #24
  ret i32 %retval.0
}